; Function Attrs: nounwind uwtable
define ptr @l_Array_foldlMUnsafe_fold___at_Lake_mixTraceArray___spec__1___rarg(ptr noundef %0, ptr noundef readonly captures(none) %1, i64 noundef %2, i64 noundef %3, ptr noundef %4) local_unnamed_addr #0 {
  %.not32 = icmp eq i64 %2, %3
  br i1 %.not32, label %._crit_edge, label %.lr.ph

.lr.ph:                                           ; preds = %5
  %6 = getelementptr inbounds nuw i8, ptr %1, i64 24
  %7 = ptrtoint ptr %0 to i64
  %8 = and i64 %7, 1
  %.not31 = icmp eq i64 %8, 0
  br i1 %.not31, label %.lr.ph.split.us, label %.lr.ph.split

.lr.ph.split.us:                                  ; preds = %.lr.ph, %lean_dec.exit.us
  %.01734.us = phi i64 [ %25, %lean_dec.exit.us ], [ %2, %.lr.ph ]
  %.01933.us = phi ptr [ %24, %lean_dec.exit.us ], [ %4, %.lr.ph ]
  %9 = getelementptr inbounds nuw [0 x ptr], ptr %6, i64 0, i64 %.01734.us
  %10 = load ptr, ptr %9, align 8, !tbaa !9
  %11 = ptrtoint ptr %10 to i64
  %12 = and i64 %11, 1
  %.not.i21.us = icmp eq i64 %12, 0
  br i1 %.not.i21.us, label %13, label %lean_array_uget.exit.us

13:                                               ; preds = %.lr.ph.split.us
  %.val.i.i.us = load i32, ptr %10, align 4, !tbaa !4
  %14 = icmp sgt i32 %.val.i.i.us, 0
  br i1 %14, label %17, label %15, !prof !13

15:                                               ; preds = %13
  %.not.i.i.us = icmp eq i32 %.val.i.i.us, 0
  br i1 %.not.i.i.us, label %lean_array_uget.exit.us, label %16

16:                                               ; preds = %15
  tail call void @lean_inc_ref_cold(ptr noundef nonnull %10) #4
  br label %lean_array_uget.exit.us

17:                                               ; preds = %13
  %18 = add nuw i32 %.val.i.i.us, 1
  store i32 %18, ptr %10, align 4, !tbaa !4
  br label %lean_array_uget.exit.us

lean_array_uget.exit.us:                          ; preds = %17, %16, %15, %.lr.ph.split.us
  %.val.i.us = load i32, ptr %0, align 4, !tbaa !4
  %19 = icmp sgt i32 %.val.i.us, 0
  br i1 %19, label %22, label %20, !prof !13

20:                                               ; preds = %lean_array_uget.exit.us
  %.not.i22.us = icmp eq i32 %.val.i.us, 0
  br i1 %.not.i22.us, label %lean_dec.exit.us, label %21

21:                                               ; preds = %20
  tail call void @lean_inc_ref_cold(ptr noundef nonnull %0) #4
  br label %lean_dec.exit.us

22:                                               ; preds = %lean_array_uget.exit.us
  %23 = add nuw i32 %.val.i.us, 1
  store i32 %23, ptr %0, align 4, !tbaa !4
  br label %lean_dec.exit.us

lean_dec.exit.us:                                 ; preds = %22, %21, %20
  %24 = tail call ptr @lean_apply_2(ptr noundef nonnull %0, ptr noundef %.01933.us, ptr noundef %10) #4
  %25 = add i64 %.01734.us, 1
  %.not.us = icmp eq i64 %25, %3
  br i1 %.not.us, label %._crit_edge.thread, label %.lr.ph.split.us

.lr.ph.split:                                     ; preds = %.lr.ph, %lean_array_uget.exit
  %.01734 = phi i64 [ %37, %lean_array_uget.exit ], [ %2, %.lr.ph ]
  %.01933 = phi ptr [ %36, %lean_array_uget.exit ], [ %4, %.lr.ph ]
  %26 = getelementptr inbounds nuw [0 x ptr], ptr %6, i64 0, i64 %.01734
  %27 = load ptr, ptr %26, align 8, !tbaa !9
  %28 = ptrtoint ptr %27 to i64
  %29 = and i64 %28, 1
  %.not.i21 = icmp eq i64 %29, 0
  br i1 %.not.i21, label %30, label %lean_array_uget.exit

30:                                               ; preds = %.lr.ph.split
  %.val.i.i = load i32, ptr %27, align 4, !tbaa !4
  %31 = icmp sgt i32 %.val.i.i, 0
  br i1 %31, label %32, label %34, !prof !13

32:                                               ; preds = %30
  %33 = add nuw i32 %.val.i.i, 1
  store i32 %33, ptr %27, align 4, !tbaa !4
  br label %lean_array_uget.exit

34:                                               ; preds = %30
  %.not.i.i = icmp eq i32 %.val.i.i, 0
  br i1 %.not.i.i, label %lean_array_uget.exit, label %35

35:                                               ; preds = %34
  tail call void @lean_inc_ref_cold(ptr noundef nonnull %27) #4
  br label %lean_array_uget.exit

lean_array_uget.exit:                             ; preds = %.lr.ph.split, %32, %34, %35
  %36 = tail call ptr @lean_apply_2(ptr noundef %0, ptr noundef %.01933, ptr noundef %27) #4
  %37 = add i64 %.01734, 1
  %.not = icmp eq i64 %37, %3
  br i1 %.not, label %._crit_edge.thread43, label %.lr.ph.split

._crit_edge:                                      ; preds = %5
  %.pre = ptrtoint ptr %0 to i64
  %.pre37 = and i64 %.pre, 1
  %38 = icmp eq i64 %.pre37, 0
  br i1 %38, label %._crit_edge.thread, label %._crit_edge.thread43

._crit_edge.thread:                               ; preds = %lean_dec.exit.us, %._crit_edge
  %.019.lcssa42 = phi ptr [ %4, %._crit_edge ], [ %24, %lean_dec.exit.us ]
  %39 = load i32, ptr %0, align 4, !tbaa !4
  %40 = icmp sgt i32 %39, 1
  br i1 %40, label %41, label %43, !prof !13

41:                                               ; preds = %._crit_edge.thread
  %42 = add nsw i32 %39, -1
  store i32 %42, ptr %0, align 4, !tbaa !4
  br label %._crit_edge.thread43

43:                                               ; preds = %._crit_edge.thread
  %.not.i = icmp eq i32 %39, 0
  br i1 %.not.i, label %._crit_edge.thread43, label %44

44:                                               ; preds = %43
  tail call void @lean_dec_ref_cold(ptr noundef nonnull %0) #4
  br label %._crit_edge.thread43

._crit_edge.thread43:                             ; preds = %lean_array_uget.exit, %44, %43, %41, %._crit_edge
  %.019.lcssa41 = phi ptr [ %.019.lcssa42, %44 ], [ %.019.lcssa42, %43 ], [ %.019.lcssa42, %41 ], [ %4, %._crit_edge ], [ %36, %lean_array_uget.exit ]
  ret ptr %.019.lcssa41
}